(lp0
(lp1
S'NNP'
p2
ag2
aa(lp3
S'DT'
p4
aS'NN'
p5
aa(lp6
S'JJ'
p7
aS'NN'
p8
aa(lp9
S'NN'
p10
aS'IN'
p11
aa(lp12
S'NN'
p13
ag8
aa(lp14
S'IN'
p15
ag4
aa(lp16
S'TO'
p17
aS'VB'
p18
aa(lp19
S'DT'
p20
ag7
aa(lp21
g2
ag8
aa(lp22
S'IN'
p23
ag2
aa(lp24
S'NNS'
p25
ag23
aa(lp26
S'JJ'
p27
ag25
aa(lp28
S'IN'
p29
ag8
aa(lp30
g8
aS'NNS'
p31
aa(lp32
S'NN'
p33
aS'.'
p34
aa(lp35
S'NN'
p36
aS'VBZ'
p37
aa(lp38
S'MD'
p39
ag18
aa(lp40
S'CD'
p41
ag31
aa(lp42
g31
aS'VBP'
p43
aa(lp44
S'PRP$'
p45
ag33
aa(lp46
S'PRP'
p47
ag43
aa(lp48
g2
aS'POS'
p49
aa(lp50
g4
ag2
aa(lp51
g49
ag8
aa(lp52
g7
ag2
aa(lp53
g2
aS'VBZ'
p54
aa(lp55
g18
aS'DT'
p56
aa(lp57
g2
ag34
aa(lp58
S'IN'
p59
aS'JJ'
p60
aa(lp61
g8
aS'VBD'
p62
aa(lp63
g8
ag2
aa(lp64
g18
ag23
aa(lp65
S"''"
p66
ag7
aa(lp67
g2
ag59
aa(lp68
g2
ag62
aa(lp69
S'IN'
p70
aS'PRP$'
p71
aa(lp72
g62
aS'DT'
p73
aa(lp74
S'RB'
p75
ag7
aa(lp76
S'IN'
p77
aS'CD'
p78
aa(lp79
g37
aS'DT'
p80
aa(lp81
g2
aS'NNS'
p82
aa(lp83
g23
aS'PRP'
p84
aa(lp85
S'PRP'
p86
ag62
aa(lp87
g11
aS'NNS'
p88
aa(lp89
S'VBN'
p90
ag59
aa(lp91
S'NN'
p92
ag17
aa(lp93
g41
ag36
aa(lp94
S'NN'
p95
aS','
p96
aa(lp97
g43
ag4
aa(lp98
S'DT'
p99
aS'NNS'
p100
aa.