(lp0
S'IN-DT-NN'
p1
aS'NNP-NNP-NNP'
p2
aS'DT-JJ-NN'
p3
aS'NN-IN-DT'
p4
aS'DT-NN-IN'
p5
aS'JJ-NN-IN'
p6
aS'IN-NNP-NNP'
p7
aS'NNP-POS-NN'
p8
aS'DT-NN-NN'
p9
aS'NN-IN-NNP'
p10
aS'JJ-NN-NN'
p11
aS'NNP-NNP-NN'
p12
aS'IN-DT-JJ'
p13
aS'NN-IN-NN'
p14
aS'NNS-IN-DT'
p15
aS'DT-NNP-NNP'
p16
aS'NNP-NNP-VBZ'
p17
aS'NN-NN-IN'
p18
aS'NNP-NNP-VBD'
p19
aS'IN-DT-NNP'
p20
aS'TO-VB-IN'
p21
aS'JJ-NNS-IN'
p22
aS'IN-JJ-NN'
p23
aS'NNP-NNP-POS'
p24
aS'VB-DT-NN'
p25
aS'NN-NNS-IN'
p26
aS'NNS-TO-VB'
p27
aS'NN-NN-NN'
p28
aS'IN-PRP$-NN'
p29
aS'NN-TO-VB'
p30
aS'NNS-IN-NNP'
p31
aS'TO-VB-DT'
p32
aS'NNP-NN-NN'
p33
aS'NNS-IN-NN'
p34
aS'VBP-TO-VB'
p35
aS'JJ-NN-.'
p36
aS'NN-IN-JJ'
p37
aS'VBD-DT-NN'
p38
aS'JJ-NN-NNS'
p39
aS'PRP-MD-VB'
p40
aS'VB-PRP$-NN'
p41
aS'NN-MD-VB'
p42
aS'JJ-NNP-NNP'
p43
aS'POS-NN-NN'
p44
aS'JJ-JJ-NN'
p45
aS'DT-NN-VBZ'
p46
aS'NN-NN-VBZ'
p47
aS'IN-NN-NN'
p48
aS'NN-NN-.'
p49
aS'DT-NN-.'
p50
a.