(lp0
(lp1
S'IN'
p2
aS'DT'
p3
aS'NN'
p4
aa(lp5
S'NNP'
p6
ag6
ag6
aa(lp7
S'DT'
p8
aS'JJ'
p9
ag4
aa(lp10
g4
ag2
ag3
aa(lp11
g3
ag4
aS'IN'
p12
aa(lp13
g9
aS'NN'
p14
aS'IN'
p15
aa(lp16
S'IN'
p17
ag6
ag6
aa(lp18
g6
aS'POS'
p19
ag4
aa(lp20
S'DT'
p21
ag4
ag4
aa(lp22
g4
aS'IN'
p23
aS'NNP'
p24
aa(lp25
g9
aS'NN'
p26
ag4
aa(lp27
g6
ag6
ag4
aa(lp28
S'IN'
p29
ag3
ag9
aa(lp30
g4
ag12
ag4
aa(lp31
S'NNS'
p32
ag2
ag3
aa(lp33
S'DT'
p34
ag6
ag6
aa(lp35
S'NNP'
p36
ag6
aS'VBZ'
p37
aa(lp38
g4
ag4
ag17
aa(lp39
g6
ag6
aS'VBD'
p40
aa(lp41
g2
ag3
ag6
aa(lp42
S'TO'
p43
aS'VB'
p44
ag29
aa(lp45
S'JJ'
p46
aS'NNS'
p47
ag17
aa(lp48
S'IN'
p49
ag9
ag4
aa(lp50
S'NNP'
p51
ag6
ag19
aa(lp52
g44
ag21
ag4
aa(lp53
S'NN'
p54
ag32
ag23
aa(lp55
S'NNS'
p56
ag43
ag44
aa(lp57
g4
ag4
ag4
aa(lp58
g49
aS'PRP$'
p59
ag4
aa(lp60
g4
ag43
ag44
aa(lp61
g47
ag17
ag6
aa(lp62
g43
ag44
ag21
aa(lp63
g6
ag4
ag4
aa(lp64
g32
ag2
aS'NN'
p65
aa(lp66
S'VBP'
p67
ag43
ag44
aa(lp68
g9
ag4
aS'.'
p69
aa(lp70
g4
aS'IN'
p71
ag9
aa(lp72
g40
ag34
aS'NN'
p73
aa(lp74
S'JJ'
p75
ag4
ag32
aa(lp76
S'PRP'
p77
aS'MD'
p78
ag44
aa(lp79
g44
aS'PRP$'
p80
aS'NN'
p81
aa(lp82
g4
aS'MD'
p83
ag44
aa(lp84
g9
ag6
ag6
aa(lp85
g19
ag4
aS'NN'
p86
aa(lp87
g9
aS'JJ'
p88
ag4
aa(lp89
g3
aS'NN'
p90
aS'VBZ'
p91
aa(lp92
S'NN'
p93
ag4
ag91
aa(lp94
g12
ag4
ag4
aa(lp95
g4
ag4
ag69
aa(lp96
g3
ag4
ag69
aa.