(lp0
S'NNP-NNP'
p1
aS'DT-NN'
p2
aS'JJ-NN'
p3
aS'NN-IN'
p4
aS'NN-NN'
p5
aS'IN-DT'
p6
aS'TO-VB'
p7
aS'DT-JJ'
p8
aS'NNP-NN'
p9
aS'IN-NNP'
p10
aS'NNS-IN'
p11
aS'JJ-NNS'
p12
aS'IN-NN'
p13
aS'NN-NNS'
p14
aS'NN-.'
p15
aS'NN-VBZ'
p16
aS'MD-VB'
p17
aS'CD-NNS'
p18
aS'NNS-VBP'
p19
aS'PRP$-NN'
p20
aS'PRP-VBP'
p21
aS'NNP-POS'
p22
aS'DT-NNP'
p23
aS'POS-NN'
p24
aS'JJ-NNP'
p25
aS'NNP-VBZ'
p26
aS'VB-DT'
p27
aS'NNP-.'
p28
aS'IN-JJ'
p29
aS'NN-VBD'
p30
aS'NN-NNP'
p31
aS'VB-IN'
p32
aS"''-JJ"
p33
aS'NNP-IN'
p34
aS'NNP-VBD'
p35
aS'IN-PRP$'
p36
aS'VBD-DT'
p37
aS'RB-JJ'
p38
aS'IN-CD'
p39
aS'VBZ-DT'
p40
aS'NNP-NNS'
p41
aS'IN-PRP'
p42
aS'PRP-VBD'
p43
aS'IN-NNS'
p44
aS'VBN-IN'
p45
aS'NN-TO'
p46
aS'CD-NN'
p47
aS'NN-,'
p48
aS'VBP-DT'
p49
aS'DT-NNS'
p50
a.